target datalayout = "e-m:e-p270:32:32-p271:32:32-p272:64:64-i64:64-i128:128-f80:128-n8:16:32:64-S128"
target triple = "x86_64-pc-linux-gnu"

%struct.PerfMapState = type { ptr, ptr }

@perf_map_state = internal global %struct.PerfMapState zeroinitializer, align 8
@.str.12 = private unnamed_addr constant [2 x i8] c"r\00", align 1

; Function Attrs: nounwind uwtable
define dso_local i32 @PyUnstable_CopyPerfMapFile(ptr noundef %0) #0 {
  %2 = alloca i32, align 4
  %3 = alloca ptr, align 8
  %4 = alloca i32, align 4
  %5 = alloca i32, align 4
  %6 = alloca ptr, align 8
  %7 = alloca [4096 x i8], align 16
  %8 = alloca i32, align 4
  %9 = alloca i32, align 4
  %10 = alloca i64, align 8
  %11 = alloca i64, align 8
  store ptr %0, ptr %3, align 8, !tbaa !94
  %12 = load ptr, ptr @perf_map_state, align 8, !tbaa !217
  %13 = icmp eq ptr %12, null
  br i1 %13, label %14, label %24

14:                                               ; preds = %1
  call void @llvm.lifetime.start.p0(i64 4, ptr %4) #12
  %15 = call i32 @PyUnstable_PerfMapState_Init()
  store i32 %15, ptr %4, align 4, !tbaa !97
  %16 = load i32, ptr %4, align 4, !tbaa !97
  %17 = icmp ne i32 %16, 0
  br i1 %17, label %18, label %20

18:                                               ; preds = %14
  %19 = load i32, ptr %4, align 4, !tbaa !97
  store i32 %19, ptr %2, align 4
  store i32 1, ptr %5, align 4
  br label %21

20:                                               ; preds = %14
  store i32 0, ptr %5, align 4
  br label %21

21:                                               ; preds = %20, %18
  call void @llvm.lifetime.end.p0(i64 4, ptr %4) #12
  %22 = load i32, ptr %5, align 4
  switch i32 %22, label %75 [
    i32 0, label %23
    i32 1, label %73
  ]

23:                                               ; preds = %21
  br label %24

24:                                               ; preds = %23, %1
  call void @llvm.lifetime.start.p0(i64 8, ptr %6) #12
  %25 = load ptr, ptr %3, align 8, !tbaa !94
  %26 = call noalias ptr @fopen64(ptr noundef %25, ptr noundef @.str.12)
  store ptr %26, ptr %6, align 8, !tbaa !98
  %27 = load ptr, ptr %6, align 8, !tbaa !98
  %28 = icmp ne ptr %27, null
  br i1 %28, label %30, label %29

29:                                               ; preds = %24
  store i32 -1, ptr %2, align 4
  store i32 1, ptr %5, align 4
  br label %72

30:                                               ; preds = %24
  call void @llvm.lifetime.start.p0(i64 4096, ptr %7) #12
  %31 = load ptr, ptr getelementptr inbounds nuw (%struct.PerfMapState, ptr @perf_map_state, i32 0, i32 1), align 8, !tbaa !219
  %32 = call i32 @PyThread_acquire_lock(ptr noundef %31, i32 noundef 1)
  call void @llvm.lifetime.start.p0(i64 4, ptr %8) #12
  store i32 0, ptr %8, align 4, !tbaa !97
  call void @llvm.lifetime.start.p0(i64 4, ptr %9) #12
  store i32 0, ptr %9, align 4, !tbaa !97
  br label %33

33:                                               ; preds = %65, %30
  br label %34

34:                                               ; preds = %33
  call void @llvm.lifetime.start.p0(i64 8, ptr %10) #12
  %35 = getelementptr inbounds [4096 x i8], ptr %7, i64 0, i64 0
  %36 = load ptr, ptr %6, align 8, !tbaa !98
  %37 = call i64 @fread(ptr noundef %35, i64 noundef 1, i64 noundef 4096, ptr noundef %36)
  store i64 %37, ptr %10, align 8, !tbaa !204
  call void @llvm.lifetime.start.p0(i64 8, ptr %11) #12
  %38 = getelementptr inbounds [4096 x i8], ptr %7, i64 0, i64 0
  %39 = load i64, ptr %10, align 8, !tbaa !204
  %40 = load ptr, ptr @perf_map_state, align 8, !tbaa !217
  %41 = call i64 @fwrite(ptr noundef %38, i64 noundef 1, i64 noundef %39, ptr noundef %40)
  store i64 %41, ptr %11, align 8, !tbaa !204
  %42 = load ptr, ptr @perf_map_state, align 8, !tbaa !217
  %43 = call i32 @fflush(ptr noundef %42)
  store i32 %43, ptr %8, align 4, !tbaa !97
  %44 = load i32, ptr %8, align 4, !tbaa !97
  %45 = icmp ne i32 %44, 0
  br i1 %45, label %53, label %46

46:                                               ; preds = %34
  %47 = load i64, ptr %10, align 8, !tbaa !204
  %48 = icmp eq i64 %47, 0
  br i1 %48, label %53, label %49

49:                                               ; preds = %46
  %50 = load i64, ptr %11, align 8, !tbaa !204
  %51 = load i64, ptr %10, align 8, !tbaa !204
  %52 = icmp ult i64 %50, %51
  br i1 %52, label %53, label %54

53:                                               ; preds = %49, %46, %34
  store i32 -1, ptr %9, align 4, !tbaa !97
  store i32 4, ptr %5, align 4
  br label %63

54:                                               ; preds = %49
  %55 = load i64, ptr %10, align 8, !tbaa !204
  %56 = icmp ult i64 %55, 4096
  br i1 %56, label %57, label %62

57:                                               ; preds = %54
  %58 = load ptr, ptr %6, align 8, !tbaa !98
  %59 = call i32 @feof(ptr noundef %58) #12
  %60 = icmp ne i32 %59, 0
  br i1 %60, label %61, label %62

61:                                               ; preds = %57
  store i32 4, ptr %5, align 4
  br label %63

62:                                               ; preds = %57, %54
  store i32 0, ptr %5, align 4
  br label %63

63:                                               ; preds = %61, %53, %62
  call void @llvm.lifetime.end.p0(i64 8, ptr %11) #12
  call void @llvm.lifetime.end.p0(i64 8, ptr %10) #12
  %64 = load i32, ptr %5, align 4
  switch i32 %64, label %71 [
    i32 0, label %65
    i32 4, label %66
  ]

65:                                               ; preds = %63
  br label %33

66:                                               ; preds = %63
  %67 = load ptr, ptr %6, align 8, !tbaa !98
  %68 = call i32 @fclose(ptr noundef %67)
  %69 = load ptr, ptr getelementptr inbounds nuw (%struct.PerfMapState, ptr @perf_map_state, i32 0, i32 1), align 8, !tbaa !219
  call void @PyThread_release_lock(ptr noundef %69)
  %70 = load i32, ptr %9, align 4, !tbaa !97
  store i32 %70, ptr %2, align 4
  store i32 1, ptr %5, align 4
  br label %71

71:                                               ; preds = %66, %63
  call void @llvm.lifetime.end.p0(i64 4, ptr %9) #12
  call void @llvm.lifetime.end.p0(i64 4, ptr %8) #12
  call void @llvm.lifetime.end.p0(i64 4096, ptr %7) #12
  br label %72

72:                                               ; preds = %71, %29
  call void @llvm.lifetime.end.p0(i64 8, ptr %6) #12
  br label %73

73:                                               ; preds = %72, %21
  %74 = load i32, ptr %2, align 4
  ret i32 %74

75:                                               ; preds = %21
  unreachable
}