; Function Attrs: nounwind uwtable
define dso_local range(i32 -2, 1) i32 @PyUnstable_CopyPerfMapFile(ptr noundef readonly captures(none) %0) local_unnamed_addr #0 {
  %2 = alloca [4096 x i8], align 16
  %3 = load ptr, ptr @perf_map_state.0, align 8, !tbaa !203
  %4 = icmp eq ptr %3, null
  br i1 %4, label %5, label %7

5:                                                ; preds = %1
  %6 = tail call i32 @PyUnstable_PerfMapState_Init()
  %.not.not = icmp eq i32 %6, 0
  br i1 %.not.not, label %7, label %28

7:                                                ; preds = %5, %1
  %8 = tail call noalias ptr @fopen64(ptr noundef %0, ptr noundef nonnull @.str.12)
  %.not23 = icmp eq ptr %8, null
  br i1 %.not23, label %28, label %9

9:                                                ; preds = %7
  call void @llvm.lifetime.start.p0(i64 4096, ptr nonnull %2) #15
  %10 = load ptr, ptr @perf_map_state.1, align 8, !tbaa !205
  %11 = tail call i32 @PyThread_acquire_lock(ptr noundef %10, i32 noundef 1) #15
  br label %12

12:                                               ; preds = %.backedge, %9
  %13 = call i64 @fread(ptr noundef nonnull %2, i64 noundef 1, i64 noundef 4096, ptr noundef nonnull %8)
  %14 = load ptr, ptr @perf_map_state.0, align 8, !tbaa !203
  %15 = call i64 @fwrite(ptr noundef nonnull %2, i64 noundef 1, i64 noundef %13, ptr noundef %14)
  %16 = load ptr, ptr @perf_map_state.0, align 8, !tbaa !203
  %17 = tail call i32 @fflush(ptr noundef %16)
  %18 = icmp ne i32 %17, 0
  %19 = add i64 %13, -1
  %20 = icmp uge i64 %19, %15
  %or.cond25 = or i1 %20, %18
  br i1 %or.cond25, label %25, label %21

21:                                               ; preds = %12
  %22 = icmp ult i64 %13, 4096
  br i1 %22, label %23, label %.backedge

.backedge:                                        ; preds = %21, %23
  br label %12

23:                                               ; preds = %21
  %24 = tail call i32 @feof(ptr noundef nonnull %8) #15
  %.not24 = icmp eq i32 %24, 0
  br i1 %.not24, label %.backedge, label %25

25:                                               ; preds = %12, %23
  %.120.ph = phi i32 [ 0, %23 ], [ -1, %12 ]
  %26 = tail call i32 @fclose(ptr noundef nonnull %8)
  %27 = load ptr, ptr @perf_map_state.1, align 8, !tbaa !205
  tail call void @PyThread_release_lock(ptr noundef %27) #15
  call void @llvm.lifetime.end.p0(i64 4096, ptr nonnull %2) #15
  br label %28

28:                                               ; preds = %5, %25, %7
  %.2 = phi i32 [ %6, %5 ], [ %.120.ph, %25 ], [ -1, %7 ]
  ret i32 %.2
}